; ModuleID = '28/766.c'
source_filename = "28/766.c"
target datalayout = "e-m:e-p270:32:32-p271:32:32-p272:64:64-i64:64-f80:128-n8:16:32:64-S128"
target triple = "x86_64-pc-linux-gnu"

@.str = private unnamed_addr constant [3 x i8] c"%d\00", align 1
@.str.1 = private unnamed_addr constant [2 x i8] c",\00", align 1

; Function Attrs: noinline nounwind uwtable
define dso_local void @main() #0 {
  %1 = alloca [10000 x i8], align 16
  %2 = alloca i8*, align 8
  %3 = alloca i32, align 4
  %4 = alloca i32, align 4
  %5 = getelementptr inbounds [10000 x i8], [10000 x i8]* %1, i64 0, i64 0
  store i8* %5, i8** %2, align 8
  %6 = getelementptr inbounds [10000 x i8], [10000 x i8]* %1, i64 0, i64 0
  %7 = call i32 (i8*, ...) bitcast (i32 (...)* @gets to i32 (i8*, ...)*)(i8* %6)
  %8 = getelementptr inbounds [10000 x i8], [10000 x i8]* %1, i64 0, i64 0
  %9 = call i64 @strlen(i8* %8) #3
  %10 = trunc i64 %9 to i32
  store i32 %10, i32* %3, align 4
  store i32 0, i32* %4, align 4
  br label %11

11:                                               ; preds = %48, %0
  %12 = load i8*, i8** %2, align 8
  %13 = load i8, i8* %12, align 1
  %14 = icmp ne i8 %13, 0
  br i1 %14, label %15, label %51

15:                                               ; preds = %11
  %16 = load i8*, i8** %2, align 8
  %17 = load i8, i8* %16, align 1
  %18 = sext i8 %17 to i32
  %19 = icmp eq i32 %18, 32
  br i1 %19, label %20, label %21

20:                                               ; preds = %15
  br label %48

21:                                               ; preds = %15
  %22 = load i32, i32* %4, align 4
  %23 = add nsw i32 %22, 1
  store i32 %23, i32* %4, align 4
  %24 = load i8*, i8** %2, align 8
  %25 = getelementptr inbounds i8, i8* %24, i64 1
  %26 = load i8, i8* %25, align 1
  %27 = sext i8 %26 to i32
  %28 = icmp eq i32 %27, 32
  br i1 %28, label %35, label %29

29:                                               ; preds = %21
  %30 = load i8*, i8** %2, align 8
  %31 = getelementptr inbounds i8, i8* %30, i64 1
  %32 = load i8, i8* %31, align 1
  %33 = sext i8 %32 to i32
  %34 = icmp eq i32 %33, 0
  br i1 %34, label %35, label %46

35:                                               ; preds = %29, %21
  %36 = load i32, i32* %4, align 4
  %37 = call i32 (i8*, ...) @printf(i8* getelementptr inbounds ([3 x i8], [3 x i8]* @.str, i64 0, i64 0), i32 %36)
  %38 = load i8*, i8** %2, align 8
  %39 = getelementptr inbounds i8, i8* %38, i64 1
  %40 = load i8, i8* %39, align 1
  %41 = sext i8 %40 to i32
  %42 = icmp ne i32 %41, 0
  br i1 %42, label %43, label %45

43:                                               ; preds = %35
  %44 = call i32 (i8*, ...) @printf(i8* getelementptr inbounds ([2 x i8], [2 x i8]* @.str.1, i64 0, i64 0))
  br label %45

45:                                               ; preds = %43, %35
  store i32 0, i32* %4, align 4
  br label %46

46:                                               ; preds = %45, %29
  br label %47

47:                                               ; preds = %46
  br label %48

48:                                               ; preds = %47, %20
  %49 = load i8*, i8** %2, align 8
  %50 = getelementptr inbounds i8, i8* %49, i32 1
  store i8* %50, i8** %2, align 8
  br label %11

51:                                               ; preds = %11
  ret void
}

declare dso_local i32 @gets(...) #1

; Function Attrs: nounwind readonly
declare dso_local i64 @strlen(i8*) #2

declare dso_local i32 @printf(i8*, ...) #1


!llvm.module.flags = !{!0}
!llvm.ident = !{!1}

!0 = !{i32 1, !"wchar_size", i32 4}
!1 = !{!"clang version 10.0.0-4ubuntu1 "}
