; ModuleID = 'source-C-CXX/27/766.c'
source_filename = "source-C-CXX/27/766.c"
target datalayout = "e-m:e-p270:32:32-p271:32:32-p272:64:64-i64:64-f80:128-n8:16:32:64-S128"
target triple = "x86_64-pc-linux-gnu"

@.str = private unnamed_addr constant [3 x i8] c"%d\00", align 1

; Function Attrs: nounwind sspstrong uwtable
define dso_local void @main() local_unnamed_addr #0 {
  %1 = alloca [10000 x i8], align 16
  %2 = getelementptr inbounds [10000 x i8], [10000 x i8]* %1, i64 0, i64 0
  call void @llvm.lifetime.start.p0i8(i64 10000, i8* nonnull %2) #5
  %3 = call i32 (i8*, ...) bitcast (i32 (...)* @gets to i32 (i8*, ...)*)(i8* nonnull %2) #5
  br label %4

4:                                                ; preds = %18, %0
  %5 = phi i8* [ %2, %0 ], [ %20, %18 ]
  %6 = phi i32 [ 0, %0 ], [ %19, %18 ]
  %7 = load i8, i8* %5, align 1, !tbaa !5
  switch i8 %7, label %8 [
    i8 0, label %21
    i8 32, label %18
  ]

8:                                                ; preds = %4
  %9 = add nsw i32 %6, 1
  %10 = getelementptr inbounds i8, i8* %5, i64 1
  %11 = load i8, i8* %10, align 1, !tbaa !5
  switch i8 %11, label %18 [
    i8 32, label %12
    i8 0, label %12
  ]

12:                                               ; preds = %8, %8
  %13 = call i32 (i8*, ...) @printf(i8* nonnull dereferenceable(1) getelementptr inbounds ([3 x i8], [3 x i8]* @.str, i64 0, i64 0), i32 %9)
  %14 = load i8, i8* %10, align 1, !tbaa !5
  %15 = icmp eq i8 %14, 0
  br i1 %15, label %18, label %16

16:                                               ; preds = %12
  %17 = call i32 @putchar(i32 44)
  br label %18

18:                                               ; preds = %12, %16, %8, %4
  %19 = phi i32 [ %6, %4 ], [ %9, %8 ], [ 0, %16 ], [ 0, %12 ]
  %20 = getelementptr inbounds i8, i8* %5, i64 1
  br label %4, !llvm.loop !8

21:                                               ; preds = %4
  call void @llvm.lifetime.end.p0i8(i64 10000, i8* nonnull %2) #5
  ret void
}

; Function Attrs: argmemonly mustprogress nofree nosync nounwind willreturn
declare void @llvm.lifetime.start.p0i8(i64 immarg, i8* nocapture) #1

declare i32 @gets(...) local_unnamed_addr #2

; Function Attrs: nofree nounwind
declare noundef i32 @printf(i8* nocapture noundef readonly, ...) local_unnamed_addr #3

; Function Attrs: argmemonly mustprogress nofree nosync nounwind willreturn
declare void @llvm.lifetime.end.p0i8(i64 immarg, i8* nocapture) #1

; Function Attrs: nofree nounwind
declare noundef i32 @putchar(i32 noundef) local_unnamed_addr #4


!llvm.module.flags = !{!0, !1, !2, !3}
!llvm.ident = !{!4}

!0 = !{i32 1, !"wchar_size", i32 4}
!1 = !{i32 7, !"PIC Level", i32 2}
!2 = !{i32 7, !"PIE Level", i32 2}
!3 = !{i32 7, !"uwtable", i32 1}
!4 = !{!"clang version 13.0.0"}
!5 = !{!6, !6, i64 0}
!6 = !{!"omnipotent char", !7, i64 0}
!7 = !{!"Simple C/C++ TBAA"}
!8 = distinct !{!8, !9}
!9 = !{!"llvm.loop.mustprogress"}
